; Function Attrs: mustprogress nounwind uwtable
define hidden noundef range(i64 0, -1) i64 @_ZN17StackWatermarkSet16lowest_watermarkEP10JavaThread(ptr nocapture noundef readonly %0) local_unnamed_addr #1 align 2 {
  %2 = getelementptr inbounds i8, ptr %0, i64 1376
  %.011 = load ptr, ptr %2, align 8
  %.not12 = icmp eq ptr %.011, null
  br i1 %.not12, label %._crit_edge.thread, label %.lr.ph

.lr.ph:                                           ; preds = %1, %.lr.ph
  %.014 = phi ptr [ %.0, %.lr.ph ], [ %.011, %1 ]
  %.0913 = phi i64 [ %4, %.lr.ph ], [ -1, %1 ]
  %3 = tail call noundef i64 @_ZN14StackWatermark9watermarkEv(ptr noundef nonnull align 8 dereferenceable(176) %.014) #10
  %4 = tail call noundef i64 @llvm.umin.i64(i64 %.0913, i64 %3)
  %5 = getelementptr inbounds i8, ptr %.014, i64 24
  %.0 = load ptr, ptr %5, align 8
  %.not = icmp eq ptr %.0, null
  br i1 %.not, label %._crit_edge, label %.lr.ph, !llvm.loop !19

._crit_edge:                                      ; preds = %.lr.ph
  %6 = icmp eq i64 %4, -1
  br i1 %6, label %._crit_edge.thread, label %7

._crit_edge.thread:                               ; preds = %1, %._crit_edge
  br label %7

7:                                                ; preds = %._crit_edge, %._crit_edge.thread
  %8 = phi i64 [ 0, %._crit_edge.thread ], [ %4, %._crit_edge ]
  ret i64 %8
}